target datalayout = "e-m:e-p270:32:32-p271:32:32-p272:64:64-i64:64-i128:128-f80:128-n8:16:32:64-S128"
target triple = "x86_64-pc-linux-gnu"

%struct.EState = type { i32, i32, ptr, ptr, ptr, i32, ptr, ptr, ptr, ptr, ptr, ptr, ptr, ptr, ptr, ptr, i32, ptr, ptr, ptr, ptr, ptr, ptr, ptr, ptr, ptr, ptr, i64, i64, i32, i32, i8, ptr, ptr, ptr, ptr, ptr, i8, i32, i32, ptr, i32, ptr, ptr, ptr, ptr }
%struct.ForEachState = type { ptr, i32 }
%struct.List = type { i32, i32, i32, ptr, [0 x %union.ListCell] }
%union.ListCell = type { ptr }
%struct.ResultRelInfo = type { i32, i32, ptr, i32, ptr, ptr, i16, ptr, i8, ptr, ptr, ptr, i8, i8, ptr, ptr, ptr, ptr, ptr, ptr, ptr, ptr, ptr, ptr, i8, i32, i32, i32, ptr, ptr, ptr, ptr, ptr, ptr, ptr, i32, i32, ptr, ptr, ptr, ptr, [3 x ptr], ptr, ptr, ptr, i8, ptr, i8, ptr, ptr, ptr, ptr }

; Function Attrs: nounwind uwtable
define dso_local void @ExecCloseResultRelations(ptr noundef %0) #0 {
  %2 = alloca ptr, align 8
  %3 = alloca ptr, align 8
  %4 = alloca %struct.ForEachState, align 8
  %5 = alloca i32, align 4
  %6 = alloca ptr, align 8
  %7 = alloca ptr, align 8
  %8 = alloca %struct.ForEachState, align 8
  %9 = alloca ptr, align 8
  %10 = alloca %struct.ForEachState, align 8
  %11 = alloca ptr, align 8
  store ptr %0, ptr %2, align 8
  call void @llvm.lifetime.start.p0(i64 8, ptr %3) #9
  call void @llvm.lifetime.start.p0(i64 16, ptr %4) #9
  %12 = getelementptr inbounds nuw %struct.ForEachState, ptr %4, i32 0, i32 0
  %13 = load ptr, ptr %2, align 8
  %14 = getelementptr inbounds nuw %struct.EState, ptr %13, i32 0, i32 18
  %15 = load ptr, ptr %14, align 8
  store ptr %15, ptr %12, align 8
  %16 = getelementptr inbounds nuw %struct.ForEachState, ptr %4, i32 0, i32 1
  store i32 0, ptr %16, align 8
  %17 = getelementptr i8, ptr %4, i64 12
  call void @llvm.memset.p0.i64(ptr align 4 %17, i8 0, i64 4, i1 false)
  br label %18

18:                                               ; preds = %100, %1
  %19 = getelementptr inbounds nuw %struct.ForEachState, ptr %4, i32 0, i32 0
  %20 = load ptr, ptr %19, align 8
  %21 = icmp ne ptr %20, null
  br i1 %21, label %22, label %39

22:                                               ; preds = %18
  %23 = getelementptr inbounds nuw %struct.ForEachState, ptr %4, i32 0, i32 1
  %24 = load i32, ptr %23, align 8
  %25 = getelementptr inbounds nuw %struct.ForEachState, ptr %4, i32 0, i32 0
  %26 = load ptr, ptr %25, align 8
  %27 = getelementptr inbounds nuw %struct.List, ptr %26, i32 0, i32 1
  %28 = load i32, ptr %27, align 4
  %29 = icmp slt i32 %24, %28
  br i1 %29, label %30, label %39

30:                                               ; preds = %22
  %31 = getelementptr inbounds nuw %struct.ForEachState, ptr %4, i32 0, i32 0
  %32 = load ptr, ptr %31, align 8
  %33 = getelementptr inbounds nuw %struct.List, ptr %32, i32 0, i32 3
  %34 = load ptr, ptr %33, align 8
  %35 = getelementptr inbounds nuw %struct.ForEachState, ptr %4, i32 0, i32 1
  %36 = load i32, ptr %35, align 8
  %37 = sext i32 %36 to i64
  %38 = getelementptr inbounds %union.ListCell, ptr %34, i64 %37
  store ptr %38, ptr %3, align 8
  br label %40

39:                                               ; preds = %22, %18
  store ptr null, ptr %3, align 8
  br label %40

40:                                               ; preds = %39, %30
  %41 = phi i32 [ 1, %30 ], [ 0, %39 ]
  %42 = icmp ne i32 %41, 0
  br i1 %42, label %44, label %43

43:                                               ; preds = %40
  store i32 2, ptr %5, align 4
  call void @llvm.lifetime.end.p0(i64 16, ptr %4) #9
  br label %104

44:                                               ; preds = %40
  call void @llvm.lifetime.start.p0(i64 8, ptr %6) #9
  %45 = load ptr, ptr %3, align 8
  %46 = load ptr, ptr %45, align 8
  store ptr %46, ptr %6, align 8
  call void @llvm.lifetime.start.p0(i64 8, ptr %7) #9
  %47 = load ptr, ptr %6, align 8
  call void @ExecCloseIndices(ptr noundef %47)
  call void @llvm.lifetime.start.p0(i64 16, ptr %8) #9
  %48 = getelementptr inbounds nuw %struct.ForEachState, ptr %8, i32 0, i32 0
  %49 = load ptr, ptr %6, align 8
  %50 = getelementptr inbounds nuw %struct.ResultRelInfo, ptr %49, i32 0, i32 51
  %51 = load ptr, ptr %50, align 8
  store ptr %51, ptr %48, align 8
  %52 = getelementptr inbounds nuw %struct.ForEachState, ptr %8, i32 0, i32 1
  store i32 0, ptr %52, align 8
  %53 = getelementptr i8, ptr %8, i64 12
  call void @llvm.memset.p0.i64(ptr align 4 %53, i8 0, i64 4, i1 false)
  br label %54

54:                                               ; preds = %95, %44
  %55 = getelementptr inbounds nuw %struct.ForEachState, ptr %8, i32 0, i32 0
  %56 = load ptr, ptr %55, align 8
  %57 = icmp ne ptr %56, null
  br i1 %57, label %58, label %75

58:                                               ; preds = %54
  %59 = getelementptr inbounds nuw %struct.ForEachState, ptr %8, i32 0, i32 1
  %60 = load i32, ptr %59, align 8
  %61 = getelementptr inbounds nuw %struct.ForEachState, ptr %8, i32 0, i32 0
  %62 = load ptr, ptr %61, align 8
  %63 = getelementptr inbounds nuw %struct.List, ptr %62, i32 0, i32 1
  %64 = load i32, ptr %63, align 4
  %65 = icmp slt i32 %60, %64
  br i1 %65, label %66, label %75

66:                                               ; preds = %58
  %67 = getelementptr inbounds nuw %struct.ForEachState, ptr %8, i32 0, i32 0
  %68 = load ptr, ptr %67, align 8
  %69 = getelementptr inbounds nuw %struct.List, ptr %68, i32 0, i32 3
  %70 = load ptr, ptr %69, align 8
  %71 = getelementptr inbounds nuw %struct.ForEachState, ptr %8, i32 0, i32 1
  %72 = load i32, ptr %71, align 8
  %73 = sext i32 %72 to i64
  %74 = getelementptr inbounds %union.ListCell, ptr %70, i64 %73
  store ptr %74, ptr %7, align 8
  br label %76

75:                                               ; preds = %58, %54
  store ptr null, ptr %7, align 8
  br label %76

76:                                               ; preds = %75, %66
  %77 = phi i32 [ 1, %66 ], [ 0, %75 ]
  %78 = icmp ne i32 %77, 0
  br i1 %78, label %80, label %79

79:                                               ; preds = %76
  store i32 5, ptr %5, align 4
  call void @llvm.lifetime.end.p0(i64 16, ptr %8) #9
  br label %99

80:                                               ; preds = %76
  call void @llvm.lifetime.start.p0(i64 8, ptr %9) #9
  %81 = load ptr, ptr %7, align 8
  %82 = load ptr, ptr %81, align 8
  store ptr %82, ptr %9, align 8
  %83 = load ptr, ptr %9, align 8
  %84 = getelementptr inbounds nuw %struct.ResultRelInfo, ptr %83, i32 0, i32 1
  %85 = load i32, ptr %84, align 4
  %86 = icmp ugt i32 %85, 0
  br i1 %86, label %87, label %88

87:                                               ; preds = %80
  store i32 7, ptr %5, align 4
  br label %92

88:                                               ; preds = %80
  %89 = load ptr, ptr %9, align 8
  %90 = getelementptr inbounds nuw %struct.ResultRelInfo, ptr %89, i32 0, i32 2
  %91 = load ptr, ptr %90, align 8
  call void @table_close(ptr noundef %91, i32 noundef 0)
  store i32 0, ptr %5, align 4
  br label %92

92:                                               ; preds = %88, %87
  call void @llvm.lifetime.end.p0(i64 8, ptr %9) #9
  %93 = load i32, ptr %5, align 4
  switch i32 %93, label %148 [
    i32 0, label %94
    i32 7, label %95
  ]

94:                                               ; preds = %92
  br label %95

95:                                               ; preds = %94, %92
  %96 = getelementptr inbounds nuw %struct.ForEachState, ptr %8, i32 0, i32 1
  %97 = load i32, ptr %96, align 8
  %98 = add i32 %97, 1
  store i32 %98, ptr %96, align 8
  br label %54, !llvm.loop !20

99:                                               ; preds = %79
  call void @llvm.lifetime.end.p0(i64 8, ptr %7) #9
  call void @llvm.lifetime.end.p0(i64 8, ptr %6) #9
  br label %100

100:                                              ; preds = %99
  %101 = getelementptr inbounds nuw %struct.ForEachState, ptr %4, i32 0, i32 1
  %102 = load i32, ptr %101, align 8
  %103 = add i32 %102, 1
  store i32 %103, ptr %101, align 8
  br label %18, !llvm.loop !21

104:                                              ; preds = %43
  call void @llvm.lifetime.start.p0(i64 16, ptr %10) #9
  %105 = getelementptr inbounds nuw %struct.ForEachState, ptr %10, i32 0, i32 0
  %106 = load ptr, ptr %2, align 8
  %107 = getelementptr inbounds nuw %struct.EState, ptr %106, i32 0, i32 21
  %108 = load ptr, ptr %107, align 8
  store ptr %108, ptr %105, align 8
  %109 = getelementptr inbounds nuw %struct.ForEachState, ptr %10, i32 0, i32 1
  store i32 0, ptr %109, align 8
  %110 = getelementptr i8, ptr %10, i64 12
  call void @llvm.memset.p0.i64(ptr align 4 %110, i8 0, i64 4, i1 false)
  br label %111

111:                                              ; preds = %143, %104
  %112 = getelementptr inbounds nuw %struct.ForEachState, ptr %10, i32 0, i32 0
  %113 = load ptr, ptr %112, align 8
  %114 = icmp ne ptr %113, null
  br i1 %114, label %115, label %132

115:                                              ; preds = %111
  %116 = getelementptr inbounds nuw %struct.ForEachState, ptr %10, i32 0, i32 1
  %117 = load i32, ptr %116, align 8
  %118 = getelementptr inbounds nuw %struct.ForEachState, ptr %10, i32 0, i32 0
  %119 = load ptr, ptr %118, align 8
  %120 = getelementptr inbounds nuw %struct.List, ptr %119, i32 0, i32 1
  %121 = load i32, ptr %120, align 4
  %122 = icmp slt i32 %117, %121
  br i1 %122, label %123, label %132

123:                                              ; preds = %115
  %124 = getelementptr inbounds nuw %struct.ForEachState, ptr %10, i32 0, i32 0
  %125 = load ptr, ptr %124, align 8
  %126 = getelementptr inbounds nuw %struct.List, ptr %125, i32 0, i32 3
  %127 = load ptr, ptr %126, align 8
  %128 = getelementptr inbounds nuw %struct.ForEachState, ptr %10, i32 0, i32 1
  %129 = load i32, ptr %128, align 8
  %130 = sext i32 %129 to i64
  %131 = getelementptr inbounds %union.ListCell, ptr %127, i64 %130
  store ptr %131, ptr %3, align 8
  br label %133

132:                                              ; preds = %115, %111
  store ptr null, ptr %3, align 8
  br label %133

133:                                              ; preds = %132, %123
  %134 = phi i32 [ 1, %123 ], [ 0, %132 ]
  %135 = icmp ne i32 %134, 0
  br i1 %135, label %137, label %136

136:                                              ; preds = %133
  store i32 8, ptr %5, align 4
  call void @llvm.lifetime.end.p0(i64 16, ptr %10) #9
  br label %147

137:                                              ; preds = %133
  call void @llvm.lifetime.start.p0(i64 8, ptr %11) #9
  %138 = load ptr, ptr %3, align 8
  %139 = load ptr, ptr %138, align 8
  store ptr %139, ptr %11, align 8
  %140 = load ptr, ptr %11, align 8
  %141 = getelementptr inbounds nuw %struct.ResultRelInfo, ptr %140, i32 0, i32 2
  %142 = load ptr, ptr %141, align 8
  call void @table_close(ptr noundef %142, i32 noundef 0)
  call void @llvm.lifetime.end.p0(i64 8, ptr %11) #9
  br label %143

143:                                              ; preds = %137
  %144 = getelementptr inbounds nuw %struct.ForEachState, ptr %10, i32 0, i32 1
  %145 = load i32, ptr %144, align 8
  %146 = add i32 %145, 1
  store i32 %146, ptr %144, align 8
  br label %111, !llvm.loop !22

147:                                              ; preds = %136
  call void @llvm.lifetime.end.p0(i64 8, ptr %3) #9
  ret void

148:                                              ; preds = %92
  unreachable
}