; Function Attrs: nounwind uwtable
define dso_local void @ExecCloseResultRelations(ptr noundef readonly captures(none) %0) local_unnamed_addr #0 {
  %2 = getelementptr inbounds nuw i8, ptr %0, i64 136
  %3 = load ptr, ptr %2, align 8
  %4 = getelementptr inbounds nuw i8, ptr %3, i64 4
  %.not = icmp eq ptr %3, null
  br i1 %.not, label %._crit_edge55, label %.lr.ph54

.lr.ph54:                                         ; preds = %1
  %5 = getelementptr inbounds nuw i8, ptr %3, i64 16
  %6 = load i32, ptr %4, align 4
  %7 = icmp sgt i32 %6, 0
  br i1 %7, label %.lr.ph72, label %._crit_edge55

._crit_edge55:                                    ; preds = %._crit_edge, %.lr.ph54, %1
  %8 = getelementptr inbounds nuw i8, ptr %0, i64 160
  %9 = load ptr, ptr %8, align 8
  %10 = getelementptr inbounds nuw i8, ptr %9, i64 4
  %.not33 = icmp eq ptr %9, null
  br i1 %.not33, label %._crit_edge60, label %.lr.ph59

.lr.ph59:                                         ; preds = %._crit_edge55
  %11 = getelementptr inbounds nuw i8, ptr %9, i64 16
  %12 = load i32, ptr %10, align 4
  %13 = icmp sgt i32 %12, 0
  br i1 %13, label %.lr.ph63, label %._crit_edge60

.lr.ph72:                                         ; preds = %.lr.ph54, %._crit_edge
  %indvars.iv6571 = phi i64 [ %indvars.iv.next66, %._crit_edge ], [ 0, %.lr.ph54 ]
  %14 = load ptr, ptr %5, align 8
  %15 = getelementptr inbounds nuw %union.ListCell, ptr %14, i64 %indvars.iv6571
  %16 = load ptr, ptr %15, align 8
  tail call void @ExecCloseIndices(ptr noundef %16) #9
  %17 = getelementptr inbounds nuw i8, ptr %16, i64 384
  %18 = load ptr, ptr %17, align 8
  %19 = getelementptr inbounds nuw i8, ptr %18, i64 4
  %.not35 = icmp eq ptr %18, null
  br i1 %.not35, label %._crit_edge, label %.lr.ph

.lr.ph:                                           ; preds = %.lr.ph72
  %20 = getelementptr inbounds nuw i8, ptr %18, i64 16
  %21 = load i32, ptr %19, align 4
  %22 = icmp sgt i32 %21, 0
  br i1 %22, label %.lr.ph51, label %._crit_edge

._crit_edge:                                      ; preds = %35, %.lr.ph, %.lr.ph72
  %indvars.iv.next66 = add nuw nsw i64 %indvars.iv6571, 1
  %23 = load i32, ptr %4, align 4
  %24 = sext i32 %23 to i64
  %25 = icmp slt i64 %indvars.iv.next66, %24
  br i1 %25, label %.lr.ph72, label %._crit_edge55

.lr.ph51:                                         ; preds = %.lr.ph, %35
  %26 = phi i32 [ %36, %35 ], [ %21, %.lr.ph ]
  %indvars.iv = phi i64 [ %indvars.iv.next, %35 ], [ 0, %.lr.ph ]
  %27 = load ptr, ptr %20, align 8
  %28 = getelementptr inbounds nuw %union.ListCell, ptr %27, i64 %indvars.iv
  %29 = load ptr, ptr %28, align 8
  %30 = getelementptr inbounds nuw i8, ptr %29, i64 4
  %31 = load i32, ptr %30, align 4
  %.not37 = icmp eq i32 %31, 0
  br i1 %.not37, label %32, label %35

32:                                               ; preds = %.lr.ph51
  %33 = getelementptr inbounds nuw i8, ptr %29, i64 8
  %34 = load ptr, ptr %33, align 8
  tail call void @table_close(ptr noundef %34, i32 noundef 0) #9
  %.pre = load i32, ptr %19, align 4
  br label %35

35:                                               ; preds = %.lr.ph51, %32
  %36 = phi i32 [ %26, %.lr.ph51 ], [ %.pre, %32 ]
  %indvars.iv.next = add nuw nsw i64 %indvars.iv, 1
  %37 = sext i32 %36 to i64
  %38 = icmp slt i64 %indvars.iv.next, %37
  br i1 %38, label %.lr.ph51, label %._crit_edge

._crit_edge60:                                    ; preds = %.lr.ph63, %.lr.ph59, %._crit_edge55
  ret void

.lr.ph63:                                         ; preds = %.lr.ph59, %.lr.ph63
  %indvars.iv68 = phi i64 [ %indvars.iv.next69, %.lr.ph63 ], [ 0, %.lr.ph59 ]
  %39 = load ptr, ptr %11, align 8
  %40 = getelementptr inbounds nuw %union.ListCell, ptr %39, i64 %indvars.iv68
  %41 = load ptr, ptr %40, align 8
  %42 = getelementptr inbounds nuw i8, ptr %41, i64 8
  %43 = load ptr, ptr %42, align 8
  tail call void @table_close(ptr noundef %43, i32 noundef 0) #9
  %indvars.iv.next69 = add nuw nsw i64 %indvars.iv68, 1
  %44 = load i32, ptr %10, align 4
  %45 = sext i32 %44 to i64
  %46 = icmp slt i64 %indvars.iv.next69, %45
  br i1 %46, label %.lr.ph63, label %._crit_edge60
}